; Function Attrs: mustprogress nofree norecurse nosync nounwind memory(argmem: readwrite) uwtable
define noundef i32 @_ZN10duckdb_lz414LZ4_uncompressEPKcPci(ptr noundef %0, ptr noundef %1, i32 noundef %2) local_unnamed_addr #10 {
  %4 = sext i32 %2 to i64
  %5 = getelementptr inbounds i8, ptr %1, i64 %4
  %6 = ptrtoint ptr %5 to i64
  %7 = ptrtoint ptr %1 to i64
  br label %.thread.i.i

.thread.i.i:                                      ; preds = %._crit_edge.i.i, %3
  %.0115.i.i = phi ptr [ %0, %3 ], [ %.4.i.i, %._crit_edge.i.i ]
  %.080.i.i = phi ptr [ %1, %3 ], [ %57, %._crit_edge.i.i ]
  %8 = getelementptr inbounds nuw i8, ptr %.0115.i.i, i64 1
  %9 = load i8, ptr %.0115.i.i, align 1, !tbaa !3
  %10 = zext i8 %9 to i32
  %11 = lshr i32 %10, 4
  %12 = zext nneg i32 %11 to i64
  %13 = icmp eq i32 %11, 15
  br i1 %13, label %.preheader140.i.i, label %21

.preheader140.i.i:                                ; preds = %.thread.i.i, %.preheader140.i.i
  %14 = phi ptr [ %17, %.preheader140.i.i ], [ %8, %.thread.i.i ]
  %.0.i.i.i = phi i64 [ %18, %.preheader140.i.i ], [ 0, %.thread.i.i ]
  %15 = load i8, ptr %14, align 1, !tbaa !3
  %16 = zext i8 %15 to i64
  %17 = getelementptr inbounds nuw i8, ptr %14, i64 1
  %18 = add i64 %.0.i.i.i, %16
  %19 = icmp eq i8 %15, -1
  br i1 %19, label %.preheader140.i.i, label %_ZN10duckdb_lz425read_long_length_no_checkEPPKh.exit.i.i, !llvm.loop !31

_ZN10duckdb_lz425read_long_length_no_checkEPPKh.exit.i.i: ; preds = %.preheader140.i.i
  %20 = add i64 %18, 15
  br label %21

21:                                               ; preds = %_ZN10duckdb_lz425read_long_length_no_checkEPPKh.exit.i.i, %.thread.i.i
  %.1.i.i = phi ptr [ %17, %_ZN10duckdb_lz425read_long_length_no_checkEPPKh.exit.i.i ], [ %8, %.thread.i.i ]
  %.086.i.i = phi i64 [ %20, %_ZN10duckdb_lz425read_long_length_no_checkEPPKh.exit.i.i ], [ %12, %.thread.i.i ]
  %22 = ptrtoint ptr %.080.i.i to i64
  %23 = sub i64 %6, %22
  %24 = icmp ult i64 %23, %.086.i.i
  br i1 %24, label %_ZN10duckdb_lz419LZ4_decompress_fastEPKcPci.exit, label %25

25:                                               ; preds = %21
  tail call void @llvm.memmove.p0.p0.i64(ptr align 1 %.080.i.i, ptr nonnull align 1 %.1.i.i, i64 %.086.i.i, i1 false)
  %26 = getelementptr inbounds nuw i8, ptr %.080.i.i, i64 %.086.i.i
  %27 = getelementptr inbounds nuw i8, ptr %.1.i.i, i64 %.086.i.i
  %28 = ptrtoint ptr %26 to i64
  %29 = sub i64 %6, %28
  %30 = icmp ult i64 %29, 12
  br i1 %30, label %31, label %33

31:                                               ; preds = %25
  %32 = icmp eq ptr %26, %5
  br i1 %32, label %61, label %_ZN10duckdb_lz419LZ4_decompress_fastEPKcPci.exit

33:                                               ; preds = %25
  %34 = and i32 %10, 15
  %35 = zext nneg i32 %34 to i64
  %.val.i.i = load i16, ptr %27, align 1, !tbaa !3
  %36 = zext i16 %.val.i.i to i64
  %37 = getelementptr inbounds nuw i8, ptr %27, i64 2
  %38 = icmp eq i32 %34, 15
  br i1 %38, label %.preheader.i.i, label %46

.preheader.i.i:                                   ; preds = %33, %.preheader.i.i
  %39 = phi ptr [ %42, %.preheader.i.i ], [ %37, %33 ]
  %.0.i108.i.i = phi i64 [ %43, %.preheader.i.i ], [ 0, %33 ]
  %40 = load i8, ptr %39, align 1, !tbaa !3
  %41 = zext i8 %40 to i64
  %42 = getelementptr inbounds nuw i8, ptr %39, i64 1
  %43 = add i64 %.0.i108.i.i, %41
  %44 = icmp eq i8 %40, -1
  br i1 %44, label %.preheader.i.i, label %_ZN10duckdb_lz425read_long_length_no_checkEPPKh.exit109.i.i, !llvm.loop !31

_ZN10duckdb_lz425read_long_length_no_checkEPPKh.exit109.i.i: ; preds = %.preheader.i.i
  %45 = add i64 %43, 15
  br label %46

46:                                               ; preds = %_ZN10duckdb_lz425read_long_length_no_checkEPPKh.exit109.i.i, %33
  %.4.i.i = phi ptr [ %42, %_ZN10duckdb_lz425read_long_length_no_checkEPPKh.exit109.i.i ], [ %37, %33 ]
  %.092.i.i = phi i64 [ %45, %_ZN10duckdb_lz425read_long_length_no_checkEPPKh.exit109.i.i ], [ %35, %33 ]
  %47 = add i64 %.092.i.i, 4
  %48 = icmp ult i64 %29, %47
  %49 = sub i64 %28, %7
  %.not.i.i = icmp ult i64 %49, %36
  %or.cond.i = select i1 %48, i1 true, i1 %.not.i.i
  br i1 %or.cond.i, label %_ZN10duckdb_lz419LZ4_decompress_fastEPKcPci.exit, label %50

50:                                               ; preds = %46
  %51 = sub nsw i64 0, %36
  %52 = getelementptr inbounds i8, ptr %26, i64 %51
  %.not147.i.i = icmp eq i64 %47, 0
  br i1 %.not147.i.i, label %._crit_edge.i.i, label %.lr.ph.i.i

.lr.ph.i.i:                                       ; preds = %50, %.lr.ph.i.i
  %.0146.i.i = phi i64 [ %56, %.lr.ph.i.i ], [ 0, %50 ]
  %53 = getelementptr inbounds nuw i8, ptr %52, i64 %.0146.i.i
  %54 = load i8, ptr %53, align 1, !tbaa !3
  %55 = getelementptr inbounds nuw i8, ptr %26, i64 %.0146.i.i
  store i8 %54, ptr %55, align 1, !tbaa !3
  %56 = add nuw i64 %.0146.i.i, 1
  %exitcond.not.i.i = icmp eq i64 %56, %47
  br i1 %exitcond.not.i.i, label %._crit_edge.i.i, label %.lr.ph.i.i, !llvm.loop !44

._crit_edge.i.i:                                  ; preds = %.lr.ph.i.i, %50
  %57 = getelementptr inbounds nuw i8, ptr %26, i64 %47
  %58 = ptrtoint ptr %57 to i64
  %59 = sub i64 %6, %58
  %60 = icmp ult i64 %59, 5
  br i1 %60, label %_ZN10duckdb_lz419LZ4_decompress_fastEPKcPci.exit, label %.thread.i.i

61:                                               ; preds = %31
  %62 = ptrtoint ptr %27 to i64
  %63 = ptrtoint ptr %0 to i64
  %64 = sub i64 %62, %63
  %65 = trunc i64 %64 to i32
  br label %_ZN10duckdb_lz419LZ4_decompress_fastEPKcPci.exit

_ZN10duckdb_lz419LZ4_decompress_fastEPKcPci.exit: ; preds = %21, %46, %._crit_edge.i.i, %31, %61
  %.5.i.i = phi i32 [ %65, %61 ], [ -1, %31 ], [ -1, %._crit_edge.i.i ], [ -1, %46 ], [ -1, %21 ]
  ret i32 %.5.i.i
}